target datalayout = "e-m:e-p270:32:32-p271:32:32-p272:64:64-i64:64-i128:128-f80:128-n8:16:32:64-S128"
target triple = "x86_64-pc-linux-gnu"

%struct.cmsCIExyY = type { double, double, double }

@.str = private unnamed_addr constant [36 x i8] c"cmsWhitePointFromTemp: invalid temp\00", align 1

; Function Attrs: nounwind uwtable
define hidden i32 @cmsWhitePointFromTemp(ptr noundef %0, double noundef %1) #0 {
  %3 = alloca i32, align 4
  %4 = alloca ptr, align 8
  %5 = alloca double, align 8
  %6 = alloca double, align 8
  %7 = alloca double, align 8
  %8 = alloca double, align 8
  %9 = alloca double, align 8
  %10 = alloca double, align 8
  store ptr %0, ptr %4, align 8
  store double %1, ptr %5, align 8
  %11 = load double, ptr %5, align 8
  store double %11, ptr %8, align 8
  %12 = load double, ptr %8, align 8
  %13 = load double, ptr %8, align 8
  %14 = fmul double %12, %13
  store double %14, ptr %9, align 8
  %15 = load double, ptr %9, align 8
  %16 = load double, ptr %8, align 8
  %17 = fmul double %15, %16
  store double %17, ptr %10, align 8
  %18 = load double, ptr %8, align 8
  %19 = fcmp oge double %18, 4.000000e+03
  br i1 %19, label %20, label %34

20:                                               ; preds = %2
  %21 = load double, ptr %8, align 8
  %22 = fcmp ole double %21, 7.000000e+03
  br i1 %22, label %23, label %34

23:                                               ; preds = %20
  %24 = load double, ptr %10, align 8
  %25 = fdiv double 1.000000e+09, %24
  %26 = load double, ptr %9, align 8
  %27 = fdiv double 1.000000e+06, %26
  %28 = fmul double 2.967800e+00, %27
  %29 = call double @llvm.fmuladd.f64(double -4.607000e+00, double %25, double %28)
  %30 = load double, ptr %8, align 8
  %31 = fdiv double 1.000000e+03, %30
  %32 = call double @llvm.fmuladd.f64(double 9.911000e-02, double %31, double %29)
  %33 = fadd double %32, 2.440630e-01
  store double %33, ptr %6, align 8
  br label %53

34:                                               ; preds = %20, %2
  %35 = load double, ptr %8, align 8
  %36 = fcmp ogt double %35, 7.000000e+03
  br i1 %36, label %37, label %51

37:                                               ; preds = %34
  %38 = load double, ptr %8, align 8
  %39 = fcmp ole double %38, 2.500000e+04
  br i1 %39, label %40, label %51

40:                                               ; preds = %37
  %41 = load double, ptr %10, align 8
  %42 = fdiv double 1.000000e+09, %41
  %43 = load double, ptr %9, align 8
  %44 = fdiv double 1.000000e+06, %43
  %45 = fmul double 1.901800e+00, %44
  %46 = call double @llvm.fmuladd.f64(double -2.006400e+00, double %42, double %45)
  %47 = load double, ptr %8, align 8
  %48 = fdiv double 1.000000e+03, %47
  %49 = call double @llvm.fmuladd.f64(double 2.474800e-01, double %48, double %46)
  %50 = fadd double %49, 2.370400e-01
  store double %50, ptr %6, align 8
  br label %52

51:                                               ; preds = %37, %34
  call void (ptr, i32, ptr, ...) @cmsSignalError(ptr noundef null, i32 noundef 2, ptr noundef @.str)
  store i32 0, ptr %3, align 4
  br label %69

52:                                               ; preds = %40
  br label %53

53:                                               ; preds = %52, %23
  %54 = load double, ptr %6, align 8
  %55 = load double, ptr %6, align 8
  %56 = fmul double %54, %55
  %57 = load double, ptr %6, align 8
  %58 = fmul double 2.870000e+00, %57
  %59 = call double @llvm.fmuladd.f64(double -3.000000e+00, double %56, double %58)
  %60 = fsub double %59, 2.750000e-01
  store double %60, ptr %7, align 8
  %61 = load double, ptr %6, align 8
  %62 = load ptr, ptr %4, align 8
  %63 = getelementptr inbounds %struct.cmsCIExyY, ptr %62, i32 0, i32 0
  store double %61, ptr %63, align 8
  %64 = load double, ptr %7, align 8
  %65 = load ptr, ptr %4, align 8
  %66 = getelementptr inbounds %struct.cmsCIExyY, ptr %65, i32 0, i32 1
  store double %64, ptr %66, align 8
  %67 = load ptr, ptr %4, align 8
  %68 = getelementptr inbounds %struct.cmsCIExyY, ptr %67, i32 0, i32 2
  store double 1.000000e+00, ptr %68, align 8
  store i32 1, ptr %3, align 4
  br label %69

69:                                               ; preds = %53, %51
  %70 = load i32, ptr %3, align 4
  ret i32 %70
}