; Function Attrs: nounwind uwtable
define hidden range(i32 0, 2) i32 @cmsWhitePointFromTemp(ptr nocapture noundef writeonly %0, double noundef %1) local_unnamed_addr #1 {
  %3 = fmul double %1, %1
  %4 = fmul double %3, %1
  %5 = fcmp oge double %1, 4.000000e+03
  %6 = fcmp ole double %1, 7.000000e+03
  %or.cond = and i1 %5, %6
  br i1 %or.cond, label %7, label %15

7:                                                ; preds = %2
  %8 = fdiv double 1.000000e+09, %4
  %9 = fdiv double 1.000000e+06, %3
  %10 = fmul double %9, 2.967800e+00
  %11 = tail call double @llvm.fmuladd.f64(double %8, double -4.607000e+00, double %10)
  %12 = fdiv double 1.000000e+03, %1
  %13 = tail call double @llvm.fmuladd.f64(double %12, double 9.911000e-02, double %11)
  %14 = fadd double %13, 2.440630e-01
  br label %27

15:                                               ; preds = %2
  %16 = fcmp ogt double %1, 7.000000e+03
  %17 = fcmp ole double %1, 2.500000e+04
  %or.cond3 = and i1 %16, %17
  br i1 %or.cond3, label %18, label %26

18:                                               ; preds = %15
  %19 = fdiv double 1.000000e+09, %4
  %20 = fdiv double 1.000000e+06, %3
  %21 = fmul double %20, 1.901800e+00
  %22 = tail call double @llvm.fmuladd.f64(double %19, double -2.006400e+00, double %21)
  %23 = fdiv double 1.000000e+03, %1
  %24 = tail call double @llvm.fmuladd.f64(double %23, double 2.474800e-01, double %22)
  %25 = fadd double %24, 2.370400e-01
  br label %27

26:                                               ; preds = %15
  tail call void (ptr, i32, ptr, ...) @cmsSignalError(ptr noundef null, i32 noundef 2, ptr noundef nonnull @.str) #8
  br label %34

27:                                               ; preds = %18, %7
  %.026 = phi double [ %14, %7 ], [ %25, %18 ]
  %28 = fmul double %.026, %.026
  %29 = fmul double %.026, 2.870000e+00
  %30 = tail call double @llvm.fmuladd.f64(double %28, double -3.000000e+00, double %29)
  %31 = fadd double %30, -2.750000e-01
  store double %.026, ptr %0, align 8
  %32 = getelementptr inbounds i8, ptr %0, i64 8
  store double %31, ptr %32, align 8
  %33 = getelementptr inbounds i8, ptr %0, i64 16
  store double 1.000000e+00, ptr %33, align 8
  br label %34

34:                                               ; preds = %27, %26
  %.0 = phi i32 [ 1, %27 ], [ 0, %26 ]
  ret i32 %.0
}